; ModuleID = '9/1176.c'
source_filename = "9/1176.c"
target datalayout = "e-m:e-p270:32:32-p271:32:32-p272:64:64-i64:64-f80:128-n8:16:32:64-S128"
target triple = "x86_64-pc-linux-gnu"

%struct.patient = type { [20 x i8], i32 }

@.str = private unnamed_addr constant [3 x i8] c"%d\00", align 1
@.str.1 = private unnamed_addr constant [6 x i8] c"%s %d\00", align 1
@.str.2 = private unnamed_addr constant [4 x i8] c"%s\0A\00", align 1

; Function Attrs: noinline nounwind uwtable
define dso_local i32 @main() #0 {
  %1 = alloca i32, align 4
  %2 = alloca [100 x %struct.patient], align 16
  %3 = alloca [100 x %struct.patient], align 16
  %4 = alloca [100 x %struct.patient], align 16
  %5 = alloca %struct.patient, align 4
  %6 = alloca i32, align 4
  %7 = alloca i32, align 4
  %8 = alloca i32, align 4
  %9 = alloca i32, align 4
  %10 = alloca i32, align 4
  store i32 0, i32* %1, align 4
  store i32 0, i32* %9, align 4
  store i32 0, i32* %10, align 4
  %11 = call i32 (i8*, ...) @__isoc99_scanf(i8* getelementptr inbounds ([3 x i8], [3 x i8]* @.str, i64 0, i64 0), i32* %6)
  store i32 0, i32* %7, align 4
  br label %12

12:                                               ; preds = %95, %0
  %13 = load i32, i32* %7, align 4
  %14 = load i32, i32* %6, align 4
  %15 = icmp slt i32 %13, %14
  br i1 %15, label %16, label %98

16:                                               ; preds = %12
  %17 = load i32, i32* %7, align 4
  %18 = sext i32 %17 to i64
  %19 = getelementptr inbounds [100 x %struct.patient], [100 x %struct.patient]* %2, i64 0, i64 %18
  %20 = getelementptr inbounds %struct.patient, %struct.patient* %19, i32 0, i32 0
  %21 = getelementptr inbounds [20 x i8], [20 x i8]* %20, i64 0, i64 0
  %22 = load i32, i32* %7, align 4
  %23 = sext i32 %22 to i64
  %24 = getelementptr inbounds [100 x %struct.patient], [100 x %struct.patient]* %2, i64 0, i64 %23
  %25 = getelementptr inbounds %struct.patient, %struct.patient* %24, i32 0, i32 1
  %26 = call i32 (i8*, ...) @__isoc99_scanf(i8* getelementptr inbounds ([6 x i8], [6 x i8]* @.str.1, i64 0, i64 0), i8* %21, i32* %25)
  %27 = load i32, i32* %7, align 4
  %28 = sext i32 %27 to i64
  %29 = getelementptr inbounds [100 x %struct.patient], [100 x %struct.patient]* %2, i64 0, i64 %28
  %30 = getelementptr inbounds %struct.patient, %struct.patient* %29, i32 0, i32 1
  %31 = load i32, i32* %30, align 4
  %32 = icmp sge i32 %31, 60
  br i1 %32, label %33, label %68

33:                                               ; preds = %16
  store i32 0, i32* %8, align 4
  br label %34

34:                                               ; preds = %62, %33
  %35 = load i32, i32* %8, align 4
  %36 = icmp slt i32 %35, 20
  br i1 %36, label %37, label %65

37:                                               ; preds = %34
  %38 = load i32, i32* %7, align 4
  %39 = sext i32 %38 to i64
  %40 = getelementptr inbounds [100 x %struct.patient], [100 x %struct.patient]* %2, i64 0, i64 %39
  %41 = getelementptr inbounds %struct.patient, %struct.patient* %40, i32 0, i32 0
  %42 = load i32, i32* %8, align 4
  %43 = sext i32 %42 to i64
  %44 = getelementptr inbounds [20 x i8], [20 x i8]* %41, i64 0, i64 %43
  %45 = load i8, i8* %44, align 1
  %46 = load i32, i32* %9, align 4
  %47 = sext i32 %46 to i64
  %48 = getelementptr inbounds [100 x %struct.patient], [100 x %struct.patient]* %3, i64 0, i64 %47
  %49 = getelementptr inbounds %struct.patient, %struct.patient* %48, i32 0, i32 0
  %50 = load i32, i32* %8, align 4
  %51 = sext i32 %50 to i64
  %52 = getelementptr inbounds [20 x i8], [20 x i8]* %49, i64 0, i64 %51
  store i8 %45, i8* %52, align 1
  %53 = load i32, i32* %7, align 4
  %54 = sext i32 %53 to i64
  %55 = getelementptr inbounds [100 x %struct.patient], [100 x %struct.patient]* %2, i64 0, i64 %54
  %56 = getelementptr inbounds %struct.patient, %struct.patient* %55, i32 0, i32 1
  %57 = load i32, i32* %56, align 4
  %58 = load i32, i32* %9, align 4
  %59 = sext i32 %58 to i64
  %60 = getelementptr inbounds [100 x %struct.patient], [100 x %struct.patient]* %3, i64 0, i64 %59
  %61 = getelementptr inbounds %struct.patient, %struct.patient* %60, i32 0, i32 1
  store i32 %57, i32* %61, align 4
  br label %62

62:                                               ; preds = %37
  %63 = load i32, i32* %8, align 4
  %64 = add nsw i32 %63, 1
  store i32 %64, i32* %8, align 4
  br label %34

65:                                               ; preds = %34
  %66 = load i32, i32* %9, align 4
  %67 = add nsw i32 %66, 1
  store i32 %67, i32* %9, align 4
  br label %94

68:                                               ; preds = %16
  store i32 0, i32* %8, align 4
  br label %69

69:                                               ; preds = %88, %68
  %70 = load i32, i32* %8, align 4
  %71 = icmp slt i32 %70, 20
  br i1 %71, label %72, label %91

72:                                               ; preds = %69
  %73 = load i32, i32* %7, align 4
  %74 = sext i32 %73 to i64
  %75 = getelementptr inbounds [100 x %struct.patient], [100 x %struct.patient]* %2, i64 0, i64 %74
  %76 = getelementptr inbounds %struct.patient, %struct.patient* %75, i32 0, i32 0
  %77 = load i32, i32* %8, align 4
  %78 = sext i32 %77 to i64
  %79 = getelementptr inbounds [20 x i8], [20 x i8]* %76, i64 0, i64 %78
  %80 = load i8, i8* %79, align 1
  %81 = load i32, i32* %10, align 4
  %82 = sext i32 %81 to i64
  %83 = getelementptr inbounds [100 x %struct.patient], [100 x %struct.patient]* %4, i64 0, i64 %82
  %84 = getelementptr inbounds %struct.patient, %struct.patient* %83, i32 0, i32 0
  %85 = load i32, i32* %8, align 4
  %86 = sext i32 %85 to i64
  %87 = getelementptr inbounds [20 x i8], [20 x i8]* %84, i64 0, i64 %86
  store i8 %80, i8* %87, align 1
  br label %88

88:                                               ; preds = %72
  %89 = load i32, i32* %8, align 4
  %90 = add nsw i32 %89, 1
  store i32 %90, i32* %8, align 4
  br label %69

91:                                               ; preds = %69
  %92 = load i32, i32* %10, align 4
  %93 = add nsw i32 %92, 1
  store i32 %93, i32* %10, align 4
  br label %94

94:                                               ; preds = %91, %65
  br label %95

95:                                               ; preds = %94
  %96 = load i32, i32* %7, align 4
  %97 = add nsw i32 %96, 1
  store i32 %97, i32* %7, align 4
  br label %12

98:                                               ; preds = %12
  %99 = load i32, i32* %9, align 4
  %100 = sub nsw i32 %99, 1
  store i32 %100, i32* %7, align 4
  br label %101

101:                                              ; preds = %148, %98
  %102 = load i32, i32* %7, align 4
  %103 = icmp sgt i32 %102, 0
  br i1 %103, label %104, label %151

104:                                              ; preds = %101
  store i32 0, i32* %8, align 4
  br label %105

105:                                              ; preds = %144, %104
  %106 = load i32, i32* %8, align 4
  %107 = load i32, i32* %7, align 4
  %108 = icmp slt i32 %106, %107
  br i1 %108, label %109, label %147

109:                                              ; preds = %105
  %110 = load i32, i32* %8, align 4
  %111 = sext i32 %110 to i64
  %112 = getelementptr inbounds [100 x %struct.patient], [100 x %struct.patient]* %3, i64 0, i64 %111
  %113 = getelementptr inbounds %struct.patient, %struct.patient* %112, i32 0, i32 1
  %114 = load i32, i32* %113, align 4
  %115 = load i32, i32* %8, align 4
  %116 = add nsw i32 %115, 1
  %117 = sext i32 %116 to i64
  %118 = getelementptr inbounds [100 x %struct.patient], [100 x %struct.patient]* %3, i64 0, i64 %117
  %119 = getelementptr inbounds %struct.patient, %struct.patient* %118, i32 0, i32 1
  %120 = load i32, i32* %119, align 4
  %121 = icmp slt i32 %114, %120
  br i1 %121, label %122, label %143

122:                                              ; preds = %109
  %123 = load i32, i32* %8, align 4
  %124 = sext i32 %123 to i64
  %125 = getelementptr inbounds [100 x %struct.patient], [100 x %struct.patient]* %3, i64 0, i64 %124
  %126 = bitcast %struct.patient* %5 to i8*
  %127 = bitcast %struct.patient* %125 to i8*
  call void @llvm.memcpy.p0i8.p0i8.i64(i8* align 4 %126, i8* align 8 %127, i64 24, i1 false)
  %128 = load i32, i32* %8, align 4
  %129 = sext i32 %128 to i64
  %130 = getelementptr inbounds [100 x %struct.patient], [100 x %struct.patient]* %3, i64 0, i64 %129
  %131 = load i32, i32* %8, align 4
  %132 = add nsw i32 %131, 1
  %133 = sext i32 %132 to i64
  %134 = getelementptr inbounds [100 x %struct.patient], [100 x %struct.patient]* %3, i64 0, i64 %133
  %135 = bitcast %struct.patient* %130 to i8*
  %136 = bitcast %struct.patient* %134 to i8*
  call void @llvm.memcpy.p0i8.p0i8.i64(i8* align 8 %135, i8* align 8 %136, i64 24, i1 false)
  %137 = load i32, i32* %8, align 4
  %138 = add nsw i32 %137, 1
  %139 = sext i32 %138 to i64
  %140 = getelementptr inbounds [100 x %struct.patient], [100 x %struct.patient]* %3, i64 0, i64 %139
  %141 = bitcast %struct.patient* %140 to i8*
  %142 = bitcast %struct.patient* %5 to i8*
  call void @llvm.memcpy.p0i8.p0i8.i64(i8* align 8 %141, i8* align 4 %142, i64 24, i1 false)
  br label %143

143:                                              ; preds = %122, %109
  br label %144

144:                                              ; preds = %143
  %145 = load i32, i32* %8, align 4
  %146 = add nsw i32 %145, 1
  store i32 %146, i32* %8, align 4
  br label %105

147:                                              ; preds = %105
  br label %148

148:                                              ; preds = %147
  %149 = load i32, i32* %7, align 4
  %150 = add nsw i32 %149, -1
  store i32 %150, i32* %7, align 4
  br label %101

151:                                              ; preds = %101
  store i32 0, i32* %7, align 4
  br label %152

152:                                              ; preds = %163, %151
  %153 = load i32, i32* %7, align 4
  %154 = load i32, i32* %9, align 4
  %155 = icmp slt i32 %153, %154
  br i1 %155, label %156, label %166

156:                                              ; preds = %152
  %157 = load i32, i32* %7, align 4
  %158 = sext i32 %157 to i64
  %159 = getelementptr inbounds [100 x %struct.patient], [100 x %struct.patient]* %3, i64 0, i64 %158
  %160 = getelementptr inbounds %struct.patient, %struct.patient* %159, i32 0, i32 0
  %161 = getelementptr inbounds [20 x i8], [20 x i8]* %160, i64 0, i64 0
  %162 = call i32 (i8*, ...) @printf(i8* getelementptr inbounds ([4 x i8], [4 x i8]* @.str.2, i64 0, i64 0), i8* %161)
  br label %163

163:                                              ; preds = %156
  %164 = load i32, i32* %7, align 4
  %165 = add nsw i32 %164, 1
  store i32 %165, i32* %7, align 4
  br label %152

166:                                              ; preds = %152
  store i32 0, i32* %7, align 4
  br label %167

167:                                              ; preds = %178, %166
  %168 = load i32, i32* %7, align 4
  %169 = load i32, i32* %10, align 4
  %170 = icmp slt i32 %168, %169
  br i1 %170, label %171, label %181

171:                                              ; preds = %167
  %172 = load i32, i32* %7, align 4
  %173 = sext i32 %172 to i64
  %174 = getelementptr inbounds [100 x %struct.patient], [100 x %struct.patient]* %4, i64 0, i64 %173
  %175 = getelementptr inbounds %struct.patient, %struct.patient* %174, i32 0, i32 0
  %176 = getelementptr inbounds [20 x i8], [20 x i8]* %175, i64 0, i64 0
  %177 = call i32 (i8*, ...) @printf(i8* getelementptr inbounds ([4 x i8], [4 x i8]* @.str.2, i64 0, i64 0), i8* %176)
  br label %178

178:                                              ; preds = %171
  %179 = load i32, i32* %7, align 4
  %180 = add nsw i32 %179, 1
  store i32 %180, i32* %7, align 4
  br label %167

181:                                              ; preds = %167
  %182 = load i32, i32* %1, align 4
  ret i32 %182
}

declare dso_local i32 @__isoc99_scanf(i8*, ...) #1

; Function Attrs: argmemonly nounwind willreturn
declare void @llvm.memcpy.p0i8.p0i8.i64(i8* noalias nocapture writeonly, i8* noalias nocapture readonly, i64, i1 immarg) #2

declare dso_local i32 @printf(i8*, ...) #1


!llvm.module.flags = !{!0}
!llvm.ident = !{!1}

!0 = !{i32 1, !"wchar_size", i32 4}
!1 = !{!"clang version 10.0.0-4ubuntu1 "}
